; Function Attrs: mustprogress nofree norecurse nosync nounwind willreturn memory(read, inaccessiblemem: none) uwtable
define hidden noundef zeroext i1 @_ZNK17arith_recognizers31is_irrational_algebraic_numeralEPK4expr(ptr noundef nonnull readnone align 1 captures(none) dereferenceable(1) %0, ptr noundef readonly captures(none) %1) local_unnamed_addr #14 align 2 {
  %3 = getelementptr inbounds nuw i8, ptr %1, i64 4
  %4 = load i32, ptr %3, align 4
  %5 = and i32 %4, 65535
  %6 = icmp eq i32 %5, 0
  br i1 %6, label %7, label %_ZNK3app9is_app_ofEii.exit

7:                                                ; preds = %2
  %8 = getelementptr inbounds nuw i8, ptr %1, i64 16
  %9 = load ptr, ptr %8, align 8, !tbaa !193
  %10 = getelementptr inbounds nuw i8, ptr %9, i64 24
  %11 = load ptr, ptr %10, align 8, !tbaa !212
  %.not.i.i = icmp eq ptr %11, null
  br i1 %.not.i.i, label %_ZNK3app9is_app_ofEii.exit, label %12

12:                                               ; preds = %7
  %13 = load i32, ptr %11, align 8, !tbaa !54
  %14 = icmp eq i32 %13, 5
  %15 = getelementptr inbounds nuw i8, ptr %11, i64 4
  %16 = load i32, ptr %15, align 4
  %17 = icmp eq i32 %16, 1
  %18 = select i1 %14, i1 %17, i1 false
  br label %_ZNK3app9is_app_ofEii.exit

_ZNK3app9is_app_ofEii.exit:                       ; preds = %12, %7, %2
  %19 = phi i1 [ false, %2 ], [ false, %7 ], [ %18, %12 ]
  ret i1 %19
}